(dp0
VChainLink
p1
(lp2
I0
aI0
aI0
aI0
aI0
asVNano
p3
(lp4
I2
aI0
aI1
aI7
aI20
asVMonaco
p5
(lp6
I0
aI0
aI0
aI1
aI6
asVBitcoin
p7
(lp8
I122
aI113
aI139
aI405
aI3735
asVEOS
p9
(lp10
I0
aI0
aI0
aI0
aI0
asVPower Ledger
p11
(lp12
I0
aI0
aI0
aI0
aI0
asVQASH
p13
(lp14
I0
aI0
aI0
aI0
aI0
asVDentacoin
p15
(lp16
I0
aI0
aI1
aI2
aI5
asVAugur
p17
(lp18
I0
aI0
aI0
aI4
aI7
asVDecred
p19
(lp20
I0
aI0
aI0
aI1
aI7
asVPopulous
p21
(lp22
I1
aI0
aI0
aI2
aI9
asVMonero
p23
(lp24
I3
aI8
aI12
aI22
aI40
asVPundi X
p25
(lp26
I0
aI0
aI0
aI0
aI0
asVArdor
p27
(lp28
I0
aI0
aI0
aI1
aI12
asVGas
p29
(lp30
I4
aI1
aI2
aI10
aI30
asVSubstratum
p31
(lp32
I0
aI0
aI0
aI0
aI6
asVIOTA
p33
(lp34
I0
aI0
aI0
aI0
aI0
asVBitcoin Gold
p35
(lp36
I0
aI0
aI0
aI0
aI0
asVMonaCoin
p37
(lp38
I0
aI0
aI0
aI0
aI0
asVQtum
p39
(lp40
I1
aI0
aI1
aI1
aI6
asVRevain
p41
(lp42
I0
aI0
aI0
aI0
aI4
asVEthereum
p43
(lp44
I47
aI48
aI46
aI221
aI3540
asVIOStoken
p45
(lp46
I0
aI0
aI0
aI0
aI0
asVSyscoin
p47
(lp48
I0
aI0
aI0
aI0
aI6
asVStratis
p49
(lp50
I0
aI0
aI0
aI1
aI4
asVBancor
p51
(lp52
I1
aI0
aI1
aI8
aI105
asVGXChain
p53
(lp54
I0
aI0
aI0
aI0
aI0
asVReddCoin
p55
(lp56
I0
aI0
aI0
aI0
aI0
asVWanchain
p57
(lp58
I0
aI0
aI0
aI0
aI0
asVArk
p59
(lp60
I1
aI0
aI0
aI1
aI16
asVGolem
p61
(lp62
I0
aI2
aI0
aI2
aI4
asVFactom
p63
(lp64
I0
aI0
aI0
aI1
aI6
asVByteball Bytes
p65
(lp66
I0
aI0
aI0
aI0
aI0
asVHshare
p67
(lp68
I1
aI0
aI0
aI0
aI13
asVaelf
p69
(lp70
I0
aI0
aI0
aI0
aI0
asVBitcoin Cash
p71
(lp72
I0
aI0
aI0
aI0
aI0
asVNucleus Vision
p73
(lp74
I0
aI0
aI0
aI0
aI0
asVStellar
p75
(lp76
I0
aI0
aI0
aI0
aI0
asVEnigma
p77
(lp78
I1
aI0
aI0
aI1
aI7
asVKomodo
p79
(lp80
I0
aI0
aI0
aI1
aI21
asVLitecoin
p81
(lp82
I19
aI27
aI26
aI60
aI209
asVZilliqa
p83
(lp84
I0
aI0
aI0
aI1
aI7
asVMaker
p85
(lp86
I5
aI5
aI5
aI2
aI3
asVBitcoin Diamond
p87
(lp88
I0
aI0
aI0
aI0
aI0
asV0x
p89
(lp90
I0
aI0
aI0
aI0
aI0
asVZcash
p91
(lp92
I4
aI1
aI3
aI12
aI81
asVSiacoin
p93
(lp94
I0
aI1
aI0
aI2
aI9
asVVerge
p95
(lp96
I1
aI2
aI3
aI5
aI12
asVCryptonex
p97
(lp98
I0
aI0
aI0
aI2
aI12
asVRipple
p99
(lp100
I19
aI14
aI23
aI41
aI179
asVDragonchain
p101
(lp102
I0
aI0
aI0
aI1
aI3
asVNEO
p103
(lp104
I0
aI0
aI0
aI0
aI0
asVNEM
p105
(lp106
I0
aI0
aI0
aI0
aI0
asVNebulas
p107
(lp108
I0
aI0
aI0
aI0
aI0
asVStorm
p109
(lp110
I3
aI3
aI2
aI5
aI11
asVEthereum Classic
p111
(lp112
I0
aI0
aI0
aI0
aI0
asVStatus
p113
(lp114
I4
aI6
aI6
aI20
aI9
asVBytecoin
p115
(lp116
I0
aI0
aI0
aI0
aI8
asVBitcoin Private
p117
(lp118
I0
aI0
aI0
aI0
aI0
asVOntology
p119
(lp120
I0
aI0
aI0
aI0
aI0
asVKyber Network
p121
(lp122
I0
aI0
aI0
aI0
aI0
asVSteem
p123
(lp124
I1
aI0
aI0
aI2
aI16
asVLoopring
p125
(lp126
I0
aI0
aI0
aI0
aI4
asVDigiByte
p127
(lp128
I0
aI0
aI0
aI0
aI0
asVDogecoin
p129
(lp130
I1
aI3
aI2
aI13
aI14
asVVeChain
p131
(lp132
I0
aI0
aI0
aI0
aI0
asVWAX
p133
(lp134
I0
aI0
aI0
aI0
aI0
asVAion
p135
(lp136
I0
aI0
aI0
aI0
aI6
asVICON
p137
(lp138
I0
aI0
aI0
aI0
aI0
asVCardano
p139
(lp140
I0
aI1
aI2
aI7
aI14
asVMithril
p141
(lp142
I0
aI0
aI0
aI0
aI0
asVSALT
p143
(lp144
I0
aI0
aI0
aI0
aI0
asVVeritaseum
p145
(lp146
I0
aI0
aI0
aI0
aI3
asVRChain
p147
(lp148
I0
aI0
aI0
aI0
aI0
asVBinance Coin
p149
(lp150
I0
aI0
aI0
aI0
aI0
asVCentrality
p151
(lp152
I0
aI0
aI0
aI0
aI0
asVBasic Attention Token
p153
(lp154
I0
aI0
aI0
aI0
aI0
asVAeternity
p155
(lp156
I0
aI0
aI0
aI0
aI9
asVEthos
p157
(lp158
I0
aI0
aI0
aI1
aI16
asVElectroneum
p159
(lp160
I0
aI1
aI0
aI2
aI6
asVElastos
p161
(lp162
I0
aI0
aI0
aI1
aI5
asVPIVX
p163
(lp164
I0
aI0
aI0
aI0
aI0
asVKin
p165
(lp166
I0
aI0
aI0
aI2
aI10
asVMixin
p167
(lp168
I0
aI0
aI0
aI0
aI0
asVWaves
p169
(lp170
I1
aI2
aI1
aI8
aI70
asVZCoin
p171
(lp172
I0
aI0
aI0
aI0
aI0
asVKuCoin Shares
p173
(lp174
I0
aI0
aI0
aI0
aI0
asVNxt
p175
(lp176
I3
aI0
aI0
aI6
aI65
asVTRON
p177
(lp178
I0
aI0
aI0
aI0
aI0
asVMaidSafeCoin
p179
(lp180
I0
aI0
aI0
aI0
aI0
asVLisk
p181
(lp182
I0
aI0
aI2
aI3
aI28
asVOmiseGO
p183
(lp184
I0
aI0
aI0
aI0
aI0
asVTether
p185
(lp186
I2
aI4
aI6
aI8
aI12
asVWaltonchain
p187
(lp188
I0
aI0
aI0
aI0
aI0
asVDigixDAO
p189
(lp190
I0
aI0
aI0
aI0
aI0
asVDash
p191
(lp192
I1
aI4
aI6
aI13
aI71
asVBytom
p193
(lp194
I0
aI0
aI0
aI0
aI5
asVBitShares
p195
(lp196
I0
aI0
aI0
aI0
aI0
asVFunFair
p197
(lp198
I0
aI0
aI0
aI0
aI0
asVCortex
p199
(lp200
I0
aI0
aI0
aI0
aI0
as.